(dp0
S'Accept-Language'
p1
S'zh-CN,zh;q=0.8,en-US;q=0.6,en;q=0.4'
p2
sS'Proxy-Connection'
p3
S'keep-alive'
p4
sS' Accept'
p5
S'text/html,application/xhtml+xml,application/xml;q=0.9,image/webp,*/*;q=0.8'
p6
sS'User-Agent'
p7
S'Mozilla/5.0 (Windows NT 6.1; WOW64) AppleWebKit/537.36 (KHTML, like Gecko) Chrome/44.0.2403.125 Safari/537.36'
p8
sS'Host'
p9
S'jandan.net'
p10
sS'Referer'
p11
S'http://jandan.net/'
p12
sS'Upgrade-Insecure-Requests'
p13
S'1'
p14
sS'Accept-Encoding'
p15
S'gzip, deflate, sdch'
p16
s.