ccopy_reg
_reconstructor
p0
(crequests.cookies
RequestsCookieJar
p1
c__builtin__
object
p2
Ntp3
Rp4
(dp5
S'_now'
p6
I1438333543
sS'_policy'
p7
(icookielib
DefaultCookiePolicy
p8
(dp9
S'strict_rfc2965_unverifiable'
p10
I01
sS'strict_ns_domain'
p11
I0
sS'_allowed_domains'
p12
NsS'rfc2109_as_netscape'
p13
NsS'rfc2965'
p14
I00
sS'strict_domain'
p15
I00
sg6
I1438333543
sS'strict_ns_set_path'
p16
I00
sS'strict_ns_unverifiable'
p17
I00
sS'strict_ns_set_initial_dollar'
p18
I00
sS'hide_cookie2'
p19
I00
sS'_blocked_domains'
p20
(tsS'netscape'
p21
I01
sbsS'_cookies'
p22
(dp23
S'jandan.net'
p24
(dp25
S'/pic'
p26
(dp27
S'125586323'
p28
(icookielib
Cookie
p29
(dp30
S'comment'
p31
NsS'domain'
p32
S'jandan.net'
p33
sS'name'
p34
S'125586323'
p35
sS'domain_initial_dot'
p36
I00
sS'expires'
p37
I1438419943
sS'value'
p38
S'10618'
p39
sS'domain_specified'
p40
I00
sS'_rest'
p41
(dp42
sS'version'
p43
I0
sS'port_specified'
p44
I00
sS'rfc2109'
p45
I00
sS'discard'
p46
I00
sS'path_specified'
p47
I00
sS'path'
p48
S'/pic'
p49
sS'port'
p50
NsS'comment_url'
p51
NsS'secure'
p52
I00
sbssS'/'
p53
(dp54
S'125586323'
p55
(icookielib
Cookie
p56
(dp57
g31
Nsg32
g24
sg34
g55
sg36
I00
sg37
I1438419923
sg38
S'10531'
p58
sg40
I00
sg41
(dp59
sg43
I0
sg44
I00
sg45
I00
sg46
I00
sg47
I00
sg48
g53
sg50
Nsg51
Nsg52
I00
sbssssb.